target datalayout = "e-m:e-p270:32:32-p271:32:32-p272:64:64-i64:64-i128:128-f80:128-n8:16:32:64-S128"
target triple = "x86_64-pc-linux-gnu"

%struct.RelationData = type { %struct.RelFileLocator, ptr, i32, i32, i8, i8, i8, i8, i8, i32, i32, i32, i32, ptr, ptr, i32, %struct.LockInfoData, ptr, ptr, ptr, ptr, ptr, i8, ptr, ptr, ptr, ptr, ptr, ptr, i32, ptr, i8, ptr, ptr, i32, i8, i32, ptr, i8, ptr, ptr, ptr, ptr, ptr, ptr, ptr, i32, ptr, ptr, ptr, ptr, ptr, ptr, ptr, ptr, ptr, ptr, ptr, ptr, ptr, ptr, ptr, ptr, ptr, ptr, ptr, i32, i8, ptr }
%struct.RelFileLocator = type { i32, i32, i32 }
%struct.LockInfoData = type { %struct.LockRelId }
%struct.LockRelId = type { i32, i32 }
%struct.FormData_pg_class = type { i32, %struct.nameData, i32, i32, i32, i32, i32, i32, i32, i32, float, i32, i32, i8, i8, i8, i8, i16, i16, i8, i8, i8, i8, i8, i8, i8, i8, i32, i32, i32 }
%struct.nameData = type { [64 x i8] }
%struct.IndexAmRoutine = type { i32, i16, i16, i16, i8, i8, i8, i8, i8, i8, i8, i8, i8, i8, i8, i8, i8, i8, i8, i8, i8, i32, ptr, ptr, ptr, ptr, ptr, ptr, ptr, ptr, ptr, ptr, ptr, ptr, ptr, ptr, ptr, ptr, ptr, ptr, ptr, ptr, ptr, ptr, ptr, ptr, ptr, ptr }
%struct.IndexScanDescData = type { ptr, ptr, ptr, i32, i32, ptr, ptr, i8, i8, i8, i8, i8, ptr, ptr, ptr, ptr, ptr, %struct.ItemPointerData, i8, ptr, i8, ptr, ptr, i8, ptr }
%struct.ItemPointerData = type { %struct.BlockIdData, i16 }
%struct.BlockIdData = type { i16, i16 }
%struct.PgStat_TableStatus = type { i32, i8, ptr, %struct.PgStat_TableCounts, ptr }
%struct.PgStat_TableCounts = type { i64, i64, i64, i64, i64, i64, i64, i64, i8, i64, i64, i64, i64, i64 }

@.str.1 = private unnamed_addr constant [10 x i8] c"indexam.c\00", align 1
@.str.2 = private unnamed_addr constant [44 x i8] c"function \22%s\22 is not defined for index \22%s\22\00", align 1
@.str.9 = private unnamed_addr constant [12 x i8] c"amgetbitmap\00", align 1
@__func__.index_getbitmap = private unnamed_addr constant [16 x i8] c"index_getbitmap\00", align 1

; Function Attrs: nounwind uwtable
define dso_local i64 @index_getbitmap(ptr noundef %0, ptr noundef %1) #0 {
  %3 = alloca ptr, align 8
  %4 = alloca ptr, align 8
  %5 = alloca i64, align 8
  store ptr %0, ptr %3, align 8
  store ptr %1, ptr %4, align 8
  call void @llvm.lifetime.start.p0(i64 8, ptr %5) #7
  br label %6

6:                                                ; preds = %2
  %7 = load ptr, ptr %3, align 8
  %8 = getelementptr inbounds nuw %struct.IndexScanDescData, ptr %7, i32 0, i32 1
  %9 = load ptr, ptr %8, align 8
  %10 = getelementptr inbounds nuw %struct.RelationData, ptr %9, i32 0, i32 51
  %11 = load ptr, ptr %10, align 8
  %12 = getelementptr inbounds nuw %struct.IndexAmRoutine, ptr %11, i32 0, i32 39
  %13 = load ptr, ptr %12, align 8
  %14 = icmp eq ptr %13, null
  br i1 %14, label %15, label %34

15:                                               ; preds = %6
  br label %16

16:                                               ; preds = %15
  br i1 true, label %17, label %19

17:                                               ; preds = %16
  %18 = call zeroext i1 @errstart_cold(i32 noundef 21, ptr noundef null) #8
  br i1 %18, label %21, label %31

19:                                               ; preds = %16
  %20 = call zeroext i1 @errstart(i32 noundef 21, ptr noundef null)
  br i1 %20, label %21, label %31

21:                                               ; preds = %19, %17
  %22 = load ptr, ptr %3, align 8
  %23 = getelementptr inbounds nuw %struct.IndexScanDescData, ptr %22, i32 0, i32 1
  %24 = load ptr, ptr %23, align 8
  %25 = getelementptr inbounds nuw %struct.RelationData, ptr %24, i32 0, i32 13
  %26 = load ptr, ptr %25, align 8
  %27 = getelementptr inbounds nuw %struct.FormData_pg_class, ptr %26, i32 0, i32 1
  %28 = getelementptr inbounds nuw %struct.nameData, ptr %27, i32 0, i32 0
  %29 = getelementptr inbounds [64 x i8], ptr %28, i64 0, i64 0
  %30 = call i32 (ptr, ...) @errmsg_internal(ptr noundef @.str.2, ptr noundef @.str.9, ptr noundef %29)
  call void @errfinish(ptr noundef @.str.1, i32 noundef 725, ptr noundef @__func__.index_getbitmap)
  br label %31

31:                                               ; preds = %21, %19, %17
  unreachable

32:                                               ; No predecessors!
  br label %33

33:                                               ; preds = %32
  br label %34

34:                                               ; preds = %33, %6
  br label %35

35:                                               ; preds = %34
  br label %36

36:                                               ; preds = %35
  %37 = load ptr, ptr %3, align 8
  %38 = getelementptr inbounds nuw %struct.IndexScanDescData, ptr %37, i32 0, i32 9
  store i8 0, ptr %38, align 2
  %39 = load ptr, ptr %3, align 8
  %40 = getelementptr inbounds nuw %struct.IndexScanDescData, ptr %39, i32 0, i32 1
  %41 = load ptr, ptr %40, align 8
  %42 = getelementptr inbounds nuw %struct.RelationData, ptr %41, i32 0, i32 51
  %43 = load ptr, ptr %42, align 8
  %44 = getelementptr inbounds nuw %struct.IndexAmRoutine, ptr %43, i32 0, i32 39
  %45 = load ptr, ptr %44, align 8
  %46 = load ptr, ptr %3, align 8
  %47 = load ptr, ptr %4, align 8
  %48 = call i64 %45(ptr noundef %46, ptr noundef %47)
  store i64 %48, ptr %5, align 8
  br label %49

49:                                               ; preds = %36
  %50 = load ptr, ptr %3, align 8
  %51 = getelementptr inbounds nuw %struct.IndexScanDescData, ptr %50, i32 0, i32 1
  %52 = load ptr, ptr %51, align 8
  %53 = getelementptr inbounds nuw %struct.RelationData, ptr %52, i32 0, i32 68
  %54 = load ptr, ptr %53, align 8
  %55 = icmp ne ptr %54, null
  %56 = zext i1 %55 to i32
  %57 = icmp ne i32 %56, 0
  %58 = zext i1 %57 to i32
  %59 = sext i32 %58 to i64
  %60 = call i64 @llvm.expect.i64(i64 %59, i64 1)
  %61 = icmp ne i64 %60, 0
  br i1 %61, label %62, label %63

62:                                               ; preds = %49
  br i1 true, label %75, label %86

63:                                               ; preds = %49
  %64 = load ptr, ptr %3, align 8
  %65 = getelementptr inbounds nuw %struct.IndexScanDescData, ptr %64, i32 0, i32 1
  %66 = load ptr, ptr %65, align 8
  %67 = getelementptr inbounds nuw %struct.RelationData, ptr %66, i32 0, i32 67
  %68 = load i8, ptr %67, align 4, !range !4, !noundef !5
  %69 = trunc i8 %68 to i1
  br i1 %69, label %70, label %74

70:                                               ; preds = %63
  %71 = load ptr, ptr %3, align 8
  %72 = getelementptr inbounds nuw %struct.IndexScanDescData, ptr %71, i32 0, i32 1
  %73 = load ptr, ptr %72, align 8
  call void @pgstat_assoc_relation(ptr noundef %73)
  br i1 true, label %75, label %86

74:                                               ; preds = %63
  br i1 false, label %75, label %86

75:                                               ; preds = %74, %70, %62
  %76 = load i64, ptr %5, align 8
  %77 = load ptr, ptr %3, align 8
  %78 = getelementptr inbounds nuw %struct.IndexScanDescData, ptr %77, i32 0, i32 1
  %79 = load ptr, ptr %78, align 8
  %80 = getelementptr inbounds nuw %struct.RelationData, ptr %79, i32 0, i32 68
  %81 = load ptr, ptr %80, align 8
  %82 = getelementptr inbounds nuw %struct.PgStat_TableStatus, ptr %81, i32 0, i32 3
  %83 = getelementptr inbounds nuw %struct.PgStat_TableCounts, ptr %82, i32 0, i32 1
  %84 = load i64, ptr %83, align 8
  %85 = add i64 %84, %76
  store i64 %85, ptr %83, align 8
  br label %86

86:                                               ; preds = %75, %74, %70, %62
  br label %87

87:                                               ; preds = %86
  br label %88

88:                                               ; preds = %87
  %89 = load i64, ptr %5, align 8
  call void @llvm.lifetime.end.p0(i64 8, ptr %5) #7
  ret i64 %89
}