; Function Attrs: nounwind uwtable
define dso_local i64 @index_getbitmap(ptr noundef %0, ptr noundef %1) local_unnamed_addr #0 {
  %3 = getelementptr inbounds nuw i8, ptr %0, i64 8
  %4 = load ptr, ptr %3, align 8
  %5 = getelementptr inbounds nuw i8, ptr %4, i64 352
  %6 = load ptr, ptr %5, align 8
  %7 = getelementptr inbounds nuw i8, ptr %6, i64 168
  %8 = load ptr, ptr %7, align 8
  %9 = icmp eq ptr %8, null
  br i1 %9, label %10, label %17

10:                                               ; preds = %2
  %11 = tail call zeroext i1 @errstart_cold(i32 noundef 21, ptr noundef null) #8
  tail call void @llvm.assume(i1 %11)
  %12 = load ptr, ptr %3, align 8
  %13 = getelementptr inbounds nuw i8, ptr %12, i64 56
  %14 = load ptr, ptr %13, align 8
  %15 = getelementptr inbounds nuw i8, ptr %14, i64 4
  %16 = tail call i32 (ptr, ...) @errmsg_internal(ptr noundef nonnull @.str.2, ptr noundef nonnull @.str.9, ptr noundef nonnull %15) #7
  tail call void @errfinish(ptr noundef nonnull @.str.1, i32 noundef 725, ptr noundef nonnull @__func__.index_getbitmap) #7
  unreachable

17:                                               ; preds = %2
  %18 = getelementptr inbounds nuw i8, ptr %0, i64 50
  store i8 0, ptr %18, align 2
  %19 = load ptr, ptr %5, align 8
  %20 = getelementptr inbounds nuw i8, ptr %19, i64 168
  %21 = load ptr, ptr %20, align 8
  %22 = tail call i64 %21(ptr noundef nonnull %0, ptr noundef %1) #7
  %23 = load ptr, ptr %3, align 8
  %24 = getelementptr inbounds nuw i8, ptr %23, i64 480
  %25 = load ptr, ptr %24, align 8
  %.not = icmp eq ptr %25, null
  br i1 %.not, label %26, label %31, !prof !4

26:                                               ; preds = %17
  %27 = getelementptr inbounds nuw i8, ptr %23, i64 476
  %28 = load i8, ptr %27, align 4, !range !5, !noundef !6
  %29 = trunc nuw i8 %28 to i1
  br i1 %29, label %30, label %36

30:                                               ; preds = %26
  tail call void @pgstat_assoc_relation(ptr noundef nonnull %23) #7
  %.pre = load ptr, ptr %3, align 8
  %.phi.trans.insert = getelementptr inbounds nuw i8, ptr %.pre, i64 480
  %.pre11 = load ptr, ptr %.phi.trans.insert, align 8
  br label %31

31:                                               ; preds = %17, %30
  %32 = phi ptr [ %25, %17 ], [ %.pre11, %30 ]
  %33 = getelementptr inbounds nuw i8, ptr %32, i64 24
  %34 = load i64, ptr %33, align 8
  %35 = add i64 %34, %22
  store i64 %35, ptr %33, align 8
  br label %36

36:                                               ; preds = %26, %31
  ret i64 %22
}